target datalayout = "e-m:e-p270:32:32-p271:32:32-p272:64:64-i64:64-i128:128-f80:128-n8:16:32:64-S128"
target triple = "x86_64-pc-linux-gnu"

%struct.ossl_method_store_st = type { ptr, ptr, ptr, ptr, i64, i32 }
%struct.ALGORITHM = type { i32, ptr, ptr }
%struct.IMPLEMENTATION = type { ptr, ptr, %struct.METHOD }
%struct.METHOD = type { ptr, ptr, ptr }
%struct.alg_cleanup_by_provider_data_st = type { ptr, ptr }

@.str = private unnamed_addr constant [38 x i8] c"../openssl/crypto/property/property.c\00", align 1

; Function Attrs: inlinehint nounwind uwtable
define internal void @lh_QUERY_flush(ptr noundef %0) #3 {
  %2 = alloca ptr, align 8
  store ptr %0, ptr %2, align 8, !tbaa !74
  %3 = load ptr, ptr %2, align 8, !tbaa !74
  call void @OPENSSL_LH_flush(ptr noundef %3)
  ret void
}

; Function Attrs: inlinehint nounwind uwtable
define internal void @lh_QUERY_doall(ptr noundef %0, ptr noundef %1) #3 {
  %3 = alloca ptr, align 8
  %4 = alloca ptr, align 8
  store ptr %0, ptr %3, align 8, !tbaa !74
  store ptr %1, ptr %4, align 8, !tbaa !3
  %5 = load ptr, ptr %3, align 8, !tbaa !74
  %6 = load ptr, ptr %4, align 8, !tbaa !3
  call void @OPENSSL_LH_doall(ptr noundef %5, ptr noundef %6)
  ret void
}

; Function Attrs: nounwind uwtable
define internal void @impl_cache_flush_alg(i64 noundef %0, ptr noundef %1) #0 {
  %3 = alloca i64, align 8
  %4 = alloca ptr, align 8
  store i64 %0, ptr %3, align 8, !tbaa !26
  store ptr %1, ptr %4, align 8, !tbaa !3
  %5 = load ptr, ptr %4, align 8, !tbaa !3
  %6 = getelementptr inbounds nuw %struct.ALGORITHM, ptr %5, i32 0, i32 2
  %7 = load ptr, ptr %6, align 8, !tbaa !31
  call void @lh_QUERY_doall(ptr noundef %7, ptr noundef @impl_cache_free)
  %8 = load ptr, ptr %4, align 8, !tbaa !3
  %9 = getelementptr inbounds nuw %struct.ALGORITHM, ptr %8, i32 0, i32 2
  %10 = load ptr, ptr %9, align 8, !tbaa !31
  call void @lh_QUERY_flush(ptr noundef %10)
  ret void
}

; Function Attrs: inlinehint nounwind uwtable
define internal i64 @lh_QUERY_num_items(ptr noundef %0) #3 {
  %2 = alloca ptr, align 8
  store ptr %0, ptr %2, align 8, !tbaa !74
  %3 = load ptr, ptr %2, align 8, !tbaa !74
  %4 = call i64 @OPENSSL_LH_num_items(ptr noundef %3)
  ret i64 %4
}

; Function Attrs: nounwind uwtable
define internal void @ossl_method_free(ptr noundef %0) #0 {
  %2 = alloca ptr, align 8
  store ptr %0, ptr %2, align 8, !tbaa !3
  %3 = load ptr, ptr %2, align 8, !tbaa !3
  %4 = getelementptr inbounds nuw %struct.METHOD, ptr %3, i32 0, i32 2
  %5 = load ptr, ptr %4, align 8, !tbaa !82
  %6 = load ptr, ptr %2, align 8, !tbaa !3
  %7 = getelementptr inbounds nuw %struct.METHOD, ptr %6, i32 0, i32 0
  %8 = load ptr, ptr %7, align 8, !tbaa !49
  call void %5(ptr noundef %8)
  ret void
}

; Function Attrs: nounwind uwtable
define internal void @ossl_method_cache_flush_alg(ptr noundef %0, ptr noundef %1) #0 {
  %3 = alloca ptr, align 8
  %4 = alloca ptr, align 8
  store ptr %0, ptr %3, align 8, !tbaa !16
  store ptr %1, ptr %4, align 8, !tbaa !3
  %5 = load ptr, ptr %4, align 8, !tbaa !3
  %6 = getelementptr inbounds nuw %struct.ALGORITHM, ptr %5, i32 0, i32 2
  %7 = load ptr, ptr %6, align 8, !tbaa !31
  %8 = call i64 @lh_QUERY_num_items(ptr noundef %7)
  %9 = load ptr, ptr %3, align 8, !tbaa !16
  %10 = getelementptr inbounds nuw %struct.ossl_method_store_st, ptr %9, i32 0, i32 4
  %11 = load i64, ptr %10, align 8, !tbaa !72
  %12 = sub i64 %11, %8
  store i64 %12, ptr %10, align 8, !tbaa !72
  %13 = load ptr, ptr %4, align 8, !tbaa !3
  call void @impl_cache_flush_alg(i64 noundef 0, ptr noundef %13)
  ret void
}

; Function Attrs: nounwind uwtable
define internal void @impl_free(ptr noundef %0) #0 {
  %2 = alloca ptr, align 8
  store ptr %0, ptr %2, align 8, !tbaa !3
  %3 = load ptr, ptr %2, align 8, !tbaa !3
  %4 = icmp ne ptr %3, null
  br i1 %4, label %5, label %9

5:                                                ; preds = %1
  %6 = load ptr, ptr %2, align 8, !tbaa !3
  %7 = getelementptr inbounds nuw %struct.IMPLEMENTATION, ptr %6, i32 0, i32 2
  call void @ossl_method_free(ptr noundef %7)
  %8 = load ptr, ptr %2, align 8, !tbaa !3
  call void @CRYPTO_free(ptr noundef %8, ptr noundef @.str, i32 noundef 207)
  br label %9

9:                                                ; preds = %5, %1
  ret void
}

; Function Attrs: inlinehint nounwind uwtable
define internal ptr @sk_IMPLEMENTATION_delete(ptr noundef %0, i32 noundef %1) #3 {
  %3 = alloca ptr, align 8
  %4 = alloca i32, align 4
  store ptr %0, ptr %3, align 8, !tbaa !53
  store i32 %1, ptr %4, align 4, !tbaa !15
  %5 = load ptr, ptr %3, align 8, !tbaa !53
  %6 = load i32, ptr %4, align 4, !tbaa !15
  %7 = call ptr @OPENSSL_sk_delete(ptr noundef %5, i32 noundef %6)
  ret ptr %7
}

; Function Attrs: inlinehint nounwind uwtable
define internal ptr @sk_IMPLEMENTATION_value(ptr noundef %0, i32 noundef %1) #3 {
  %3 = alloca ptr, align 8
  %4 = alloca i32, align 4
  store ptr %0, ptr %3, align 8, !tbaa !53
  store i32 %1, ptr %4, align 4, !tbaa !15
  %5 = load ptr, ptr %3, align 8, !tbaa !53
  %6 = load i32, ptr %4, align 4, !tbaa !15
  %7 = call ptr @OPENSSL_sk_value(ptr noundef %5, i32 noundef %6)
  ret ptr %7
}

; Function Attrs: inlinehint nounwind uwtable
define internal i32 @sk_IMPLEMENTATION_num(ptr noundef %0) #3 {
  %2 = alloca ptr, align 8
  store ptr %0, ptr %2, align 8, !tbaa !53
  %3 = load ptr, ptr %2, align 8, !tbaa !53
  %4 = call i32 @OPENSSL_sk_num(ptr noundef %3)
  ret i32 %4
}

; Function Attrs: nounwind uwtable
define internal void @alg_cleanup_by_provider(i64 noundef %0, ptr noundef %1, ptr noundef %2) #0 {
  %4 = alloca i64, align 8
  %5 = alloca ptr, align 8
  %6 = alloca ptr, align 8
  %7 = alloca ptr, align 8
  %8 = alloca i32, align 4
  %9 = alloca i32, align 4
  %10 = alloca ptr, align 8
  %11 = alloca ptr, align 8
  store i64 %0, ptr %4, align 8, !tbaa !26
  store ptr %1, ptr %5, align 8, !tbaa !3
  store ptr %2, ptr %6, align 8, !tbaa !3
  call void @llvm.lifetime.start.p0(i64 8, ptr %7) #7
  %12 = load ptr, ptr %6, align 8, !tbaa !3
  store ptr %12, ptr %7, align 8, !tbaa !58
  call void @llvm.lifetime.start.p0(i64 4, ptr %8) #7
  call void @llvm.lifetime.start.p0(i64 4, ptr %9) #7
  store i32 0, ptr %9, align 4, !tbaa !15
  %13 = load ptr, ptr %5, align 8, !tbaa !3
  %14 = getelementptr inbounds nuw %struct.ALGORITHM, ptr %13, i32 0, i32 1
  %15 = load ptr, ptr %14, align 8, !tbaa !27
  %16 = call i32 @sk_IMPLEMENTATION_num(ptr noundef %15)
  store i32 %16, ptr %8, align 4, !tbaa !15
  br label %17

17:                                               ; preds = %46, %3
  %18 = load i32, ptr %8, align 4, !tbaa !15
  %19 = add nsw i32 %18, -1
  store i32 %19, ptr %8, align 4, !tbaa !15
  %20 = icmp sgt i32 %18, 0
  br i1 %20, label %21, label %47

21:                                               ; preds = %17
  call void @llvm.lifetime.start.p0(i64 8, ptr %10) #7
  %22 = load ptr, ptr %5, align 8, !tbaa !3
  %23 = getelementptr inbounds nuw %struct.ALGORITHM, ptr %22, i32 0, i32 1
  %24 = load ptr, ptr %23, align 8, !tbaa !27
  %25 = load i32, ptr %8, align 4, !tbaa !15
  %26 = call ptr @sk_IMPLEMENTATION_value(ptr noundef %24, i32 noundef %25)
  store ptr %26, ptr %10, align 8, !tbaa !3
  %27 = load ptr, ptr %10, align 8, !tbaa !3
  %28 = getelementptr inbounds nuw %struct.IMPLEMENTATION, ptr %27, i32 0, i32 0
  %29 = load ptr, ptr %28, align 8, !tbaa !41
  %30 = load ptr, ptr %7, align 8, !tbaa !58
  %31 = getelementptr inbounds nuw %struct.alg_cleanup_by_provider_data_st, ptr %30, i32 0, i32 1
  %32 = load ptr, ptr %31, align 8, !tbaa !55
  %33 = icmp eq ptr %29, %32
  br i1 %33, label %34, label %46

34:                                               ; preds = %21
  br label %35

35:                                               ; preds = %34
  call void @llvm.lifetime.start.p0(i64 8, ptr %11) #7
  store ptr null, ptr %11, align 8, !tbaa !46
  call void @llvm.lifetime.end.p0(i64 8, ptr %11) #7
  br label %36

36:                                               ; preds = %35
  br label %37

37:                                               ; preds = %36
  %38 = load ptr, ptr %5, align 8, !tbaa !3
  %39 = getelementptr inbounds nuw %struct.ALGORITHM, ptr %38, i32 0, i32 1
  %40 = load ptr, ptr %39, align 8, !tbaa !27
  %41 = load i32, ptr %8, align 4, !tbaa !15
  %42 = call ptr @sk_IMPLEMENTATION_delete(ptr noundef %40, i32 noundef %41)
  %43 = load i32, ptr %9, align 4, !tbaa !15
  %44 = add nsw i32 %43, 1
  store i32 %44, ptr %9, align 4, !tbaa !15
  %45 = load ptr, ptr %10, align 8, !tbaa !3
  call void @impl_free(ptr noundef %45)
  br label %46

46:                                               ; preds = %37, %21
  call void @llvm.lifetime.end.p0(i64 8, ptr %10) #7
  br label %17, !llvm.loop !60

47:                                               ; preds = %17
  %48 = load i32, ptr %9, align 4, !tbaa !15
  %49 = icmp sgt i32 %48, 0
  br i1 %49, label %50, label %55

50:                                               ; preds = %47
  %51 = load ptr, ptr %7, align 8, !tbaa !58
  %52 = getelementptr inbounds nuw %struct.alg_cleanup_by_provider_data_st, ptr %51, i32 0, i32 0
  %53 = load ptr, ptr %52, align 8, !tbaa !57
  %54 = load ptr, ptr %5, align 8, !tbaa !3
  call void @ossl_method_cache_flush_alg(ptr noundef %53, ptr noundef %54)
  br label %55

55:                                               ; preds = %50, %47
  call void @llvm.lifetime.end.p0(i64 4, ptr %9) #7
  call void @llvm.lifetime.end.p0(i64 4, ptr %8) #7
  call void @llvm.lifetime.end.p0(i64 8, ptr %7) #7
  ret void
}