; Function Attrs: nounwind uwtable
define internal void @alg_cleanup_by_provider(i64 %0, ptr noundef readonly captures(none) %1, ptr noundef readonly captures(none) %2) #0 {
  %4 = getelementptr inbounds nuw i8, ptr %1, i64 8
  %5 = load ptr, ptr %4, align 8, !tbaa !18
  %6 = tail call i32 @OPENSSL_sk_num(ptr noundef %5) #7
  %7 = icmp sgt i32 %6, 0
  br i1 %7, label %.lr.ph, label %._crit_edge.thread

.lr.ph:                                           ; preds = %3
  %8 = getelementptr inbounds nuw i8, ptr %2, i64 8
  br label %9

9:                                                ; preds = %.lr.ph, %21
  %.in = phi i32 [ %6, %.lr.ph ], [ %10, %21 ]
  %.01314 = phi i32 [ 0, %.lr.ph ], [ %.1, %21 ]
  %10 = add nsw i32 %.in, -1
  %11 = load ptr, ptr %4, align 8, !tbaa !18
  %12 = tail call ptr @OPENSSL_sk_value(ptr noundef %11, i32 noundef %10) #7
  %13 = load ptr, ptr %12, align 8, !tbaa !30
  %14 = load ptr, ptr %8, align 8, !tbaa !43
  %15 = icmp eq ptr %13, %14
  br i1 %15, label %impl_free.exit, label %21

impl_free.exit:                                   ; preds = %9
  %16 = load ptr, ptr %4, align 8, !tbaa !18
  %17 = tail call ptr @OPENSSL_sk_delete(ptr noundef %16, i32 noundef %10) #7
  %18 = add nsw i32 %.01314, 1
  %19 = getelementptr inbounds nuw i8, ptr %12, i64 16
  %.val.i = load ptr, ptr %19, align 8, !tbaa !36
  %20 = getelementptr i8, ptr %12, i64 32
  %.val3.i = load ptr, ptr %20, align 8, !tbaa !37
  tail call void %.val3.i(ptr noundef %.val.i) #7
  tail call void @CRYPTO_free(ptr noundef nonnull %12, ptr noundef nonnull @.str, i32 noundef 207) #7
  br label %21

21:                                               ; preds = %impl_free.exit, %9
  %.1 = phi i32 [ %18, %impl_free.exit ], [ %.01314, %9 ]
  %22 = icmp samesign ugt i32 %.in, 1
  br i1 %22, label %9, label %._crit_edge, !llvm.loop !47

._crit_edge:                                      ; preds = %21
  %23 = icmp sgt i32 %.1, 0
  br i1 %23, label %24, label %._crit_edge.thread

24:                                               ; preds = %._crit_edge
  %25 = load ptr, ptr %2, align 8, !tbaa !46
  %26 = getelementptr inbounds nuw i8, ptr %1, i64 16
  %27 = load ptr, ptr %26, align 8, !tbaa !22
  %28 = tail call i64 @OPENSSL_LH_num_items(ptr noundef %27) #7
  %29 = getelementptr inbounds nuw i8, ptr %25, i64 32
  %30 = load i64, ptr %29, align 8, !tbaa !31
  %31 = sub i64 %30, %28
  store i64 %31, ptr %29, align 8, !tbaa !31
  %32 = load ptr, ptr %26, align 8, !tbaa !22
  tail call void @OPENSSL_LH_doall(ptr noundef %32, ptr noundef nonnull @impl_cache_free) #7
  %33 = load ptr, ptr %26, align 8, !tbaa !22
  tail call void @OPENSSL_LH_flush(ptr noundef %33) #7
  br label %._crit_edge.thread

._crit_edge.thread:                               ; preds = %3, %24, %._crit_edge
  ret void
}